target datalayout = "e-m:e-p270:32:32-p271:32:32-p272:64:64-i64:64-i128:128-f80:128-n8:16:32:64-S128"
target triple = "x86_64-pc-linux-gnu"

; Function Attrs: alwaysinline nounwind willreturn memory(none) uwtable
define internal i32 @av_clip_c(i32 noundef %0, i32 noundef %1, i32 noundef %2) #8 {
  %4 = alloca i32, align 4
  %5 = alloca i32, align 4
  %6 = alloca i32, align 4
  %7 = alloca i32, align 4
  store i32 %0, ptr %5, align 4, !tbaa !49
  store i32 %1, ptr %6, align 4, !tbaa !49
  store i32 %2, ptr %7, align 4, !tbaa !49
  %8 = load i32, ptr %5, align 4, !tbaa !49
  %9 = load i32, ptr %6, align 4, !tbaa !49
  %10 = icmp slt i32 %8, %9
  br i1 %10, label %11, label %13

11:                                               ; preds = %3
  %12 = load i32, ptr %6, align 4, !tbaa !49
  store i32 %12, ptr %4, align 4
  br label %21

13:                                               ; preds = %3
  %14 = load i32, ptr %5, align 4, !tbaa !49
  %15 = load i32, ptr %7, align 4, !tbaa !49
  %16 = icmp sgt i32 %14, %15
  br i1 %16, label %17, label %19

17:                                               ; preds = %13
  %18 = load i32, ptr %7, align 4, !tbaa !49
  store i32 %18, ptr %4, align 4
  br label %21

19:                                               ; preds = %13
  %20 = load i32, ptr %5, align 4, !tbaa !49
  store i32 %20, ptr %4, align 4
  br label %21

21:                                               ; preds = %19, %17, %11
  %22 = load i32, ptr %4, align 4
  ret i32 %22
}

; Function Attrs: nounwind uwtable
define internal void @draw_sample_line_rgba_full(ptr noundef %0, i32 noundef %1, i32 noundef %2, ptr noundef %3, ptr noundef %4, i32 noundef %5) #1 {
  %7 = alloca ptr, align 8
  %8 = alloca i32, align 4
  %9 = alloca i32, align 4
  %10 = alloca ptr, align 8
  %11 = alloca ptr, align 8
  %12 = alloca i32, align 4
  %13 = alloca i32, align 4
  %14 = alloca i32, align 4
  %15 = alloca i32, align 4
  %16 = alloca ptr, align 8
  %17 = alloca i16, align 2
  %18 = alloca i32, align 4
  store ptr %0, ptr %7, align 8, !tbaa !69
  store i32 %1, ptr %8, align 4, !tbaa !49
  store i32 %2, ptr %9, align 4, !tbaa !49
  store ptr %3, ptr %10, align 8, !tbaa !92
  store ptr %4, ptr %11, align 8, !tbaa !69
  store i32 %5, ptr %12, align 4, !tbaa !49
  call void @llvm.lifetime.start.p0(i64 4, ptr %13) #13
  %19 = load i32, ptr %8, align 4, !tbaa !49
  %20 = sdiv i32 %19, 2
  store i32 %20, ptr %13, align 4, !tbaa !49
  call void @llvm.lifetime.start.p0(i64 4, ptr %14) #13
  %21 = load i32, ptr %12, align 4, !tbaa !49
  %22 = load i32, ptr %8, align 4, !tbaa !49
  %23 = sub nsw i32 %22, 1
  %24 = call i32 @av_clip_c(i32 noundef %21, i32 noundef 0, i32 noundef %23) #15
  store i32 %24, ptr %14, align 4, !tbaa !49
  call void @llvm.lifetime.start.p0(i64 4, ptr %15) #13
  %25 = load ptr, ptr %11, align 8, !tbaa !69
  %26 = load i32, ptr %25, align 1, !tbaa !89
  store i32 %26, ptr %15, align 4, !tbaa !49
  call void @llvm.lifetime.start.p0(i64 8, ptr %16) #13
  %27 = load i32, ptr %13, align 4, !tbaa !49
  %28 = load i32, ptr %14, align 4, !tbaa !49
  %29 = icmp sgt i32 %27, %28
  br i1 %29, label %30, label %39

30:                                               ; preds = %6
  br label %31

31:                                               ; preds = %30
  call void @llvm.lifetime.start.p0(i64 2, ptr %17) #13
  %32 = load i32, ptr %14, align 4, !tbaa !49
  %33 = trunc i32 %32 to i16
  store i16 %33, ptr %17, align 2, !tbaa !93
  %34 = load i32, ptr %13, align 4, !tbaa !49
  store i32 %34, ptr %14, align 4, !tbaa !49
  %35 = load i16, ptr %17, align 2, !tbaa !93
  %36 = sext i16 %35 to i32
  store i32 %36, ptr %13, align 4, !tbaa !49
  call void @llvm.lifetime.end.p0(i64 2, ptr %17) #13
  br label %37

37:                                               ; preds = %31
  br label %38

38:                                               ; preds = %37
  br label %39

39:                                               ; preds = %38, %6
  %40 = load ptr, ptr %7, align 8, !tbaa !69
  %41 = load i32, ptr %13, align 4, !tbaa !49
  %42 = load i32, ptr %9, align 4, !tbaa !49
  %43 = mul nsw i32 %41, %42
  %44 = sext i32 %43 to i64
  %45 = getelementptr inbounds i8, ptr %40, i64 %44
  store ptr %45, ptr %16, align 8, !tbaa !69
  call void @llvm.lifetime.start.p0(i64 4, ptr %18) #13
  %46 = load i32, ptr %13, align 4, !tbaa !49
  store i32 %46, ptr %18, align 4, !tbaa !49
  br label %47

47:                                               ; preds = %55, %39
  %48 = load i32, ptr %18, align 4, !tbaa !49
  %49 = load i32, ptr %14, align 4, !tbaa !49
  %50 = icmp slt i32 %48, %49
  br i1 %50, label %52, label %51

51:                                               ; preds = %47
  call void @llvm.lifetime.end.p0(i64 4, ptr %18) #13
  br label %62

52:                                               ; preds = %47
  %53 = load i32, ptr %15, align 4, !tbaa !49
  %54 = load ptr, ptr %16, align 8, !tbaa !69
  store i32 %53, ptr %54, align 1, !tbaa !89
  br label %55

55:                                               ; preds = %52
  %56 = load i32, ptr %18, align 4, !tbaa !49
  %57 = add nsw i32 %56, 1
  store i32 %57, ptr %18, align 4, !tbaa !49
  %58 = load i32, ptr %9, align 4, !tbaa !49
  %59 = load ptr, ptr %16, align 8, !tbaa !69
  %60 = sext i32 %58 to i64
  %61 = getelementptr inbounds i8, ptr %59, i64 %60
  store ptr %61, ptr %16, align 8, !tbaa !69
  br label %47, !llvm.loop !99

62:                                               ; preds = %51
  call void @llvm.lifetime.end.p0(i64 8, ptr %16) #13
  call void @llvm.lifetime.end.p0(i64 4, ptr %15) #13
  call void @llvm.lifetime.end.p0(i64 4, ptr %14) #13
  call void @llvm.lifetime.end.p0(i64 4, ptr %13) #13
  ret void
}