; Function Attrs: nofree norecurse nosync nounwind memory(argmem: readwrite) uwtable
define internal void @draw_sample_line_rgba_full(ptr noundef writeonly captures(none) %0, i32 noundef %1, i32 noundef %2, ptr readnone captures(none) %3, ptr noundef readonly captures(none) %4, i32 noundef %5) #7 {
  %7 = sdiv i32 %1, 2
  %8 = add nsw i32 %1, -1
  %9 = icmp slt i32 %5, 0
  %..i = tail call i32 @llvm.smin.i32(i32 %5, i32 %8)
  %.0.i = select i1 %9, i32 0, i32 %..i
  %10 = load i32, ptr %4, align 1, !tbaa !96
  %11 = icmp sgt i32 %7, %.0.i
  %sext = shl i32 %.0.i, 16
  %12 = ashr exact i32 %sext, 16
  %.021 = tail call i32 @llvm.smax.i32(i32 %7, i32 %.0.i)
  %.019 = select i1 %11, i32 %12, i32 %7
  %13 = icmp slt i32 %.019, %.021
  br i1 %13, label %.lr.ph, label %._crit_edge

.lr.ph:                                           ; preds = %6
  %14 = mul nsw i32 %.019, %2
  %15 = sext i32 %14 to i64
  %16 = getelementptr inbounds i8, ptr %0, i64 %15
  %17 = sext i32 %2 to i64
  br label %18

._crit_edge:                                      ; preds = %18, %6
  ret void

18:                                               ; preds = %.lr.ph, %18
  %.026 = phi i32 [ %.019, %.lr.ph ], [ %19, %18 ]
  %.02025 = phi ptr [ %16, %.lr.ph ], [ %20, %18 ]
  store i32 %10, ptr %.02025, align 1, !tbaa !96
  %19 = add nsw i32 %.026, 1
  %20 = getelementptr inbounds i8, ptr %.02025, i64 %17
  %exitcond.not = icmp eq i32 %19, %.021
  br i1 %exitcond.not, label %._crit_edge, label %18, !llvm.loop !103
}